; Function Attrs: nounwind uwtable
define noalias nonnull ptr @l_Lean_PersistentArray_forInAux___at_Lean_Core_wrapAsyncAsSnapshot___spec__8___lambda__1___boxed(ptr noundef %0, ptr noundef %1, ptr noundef %2, ptr noundef %3, ptr noundef %4) local_unnamed_addr #1 {
  tail call void @lean_inc_heartbeat() #7
  %6 = tail call noalias ptr @mi_malloc_small(i64 noundef 16) #7
  %7 = icmp eq ptr %6, null
  br i1 %7, label %8, label %lean_alloc_ctor.exit.i

8:                                                ; preds = %5
  tail call void @lean_internal_panic_out_of_memory() #8
  unreachable

lean_alloc_ctor.exit.i:                           ; preds = %5
  %9 = getelementptr inbounds nuw i8, ptr %6, i64 4
  store i32 1, ptr %6, align 4, !tbaa !4
  store i32 16842768, ptr %9, align 4
  %10 = getelementptr inbounds nuw i8, ptr %6, i64 8
  store ptr %0, ptr %10, align 8, !tbaa !9
  tail call void @lean_inc_heartbeat() #7
  %11 = tail call noalias ptr @mi_malloc_small(i64 noundef 24) #7
  %12 = icmp eq ptr %11, null
  br i1 %12, label %13, label %l_Lean_PersistentArray_forInAux___at_Lean_Core_wrapAsyncAsSnapshot___spec__8___lambda__1.exit

13:                                               ; preds = %lean_alloc_ctor.exit.i
  tail call void @lean_internal_panic_out_of_memory() #8
  unreachable

l_Lean_PersistentArray_forInAux___at_Lean_Core_wrapAsyncAsSnapshot___spec__8___lambda__1.exit: ; preds = %lean_alloc_ctor.exit.i
  %14 = getelementptr inbounds nuw i8, ptr %11, i64 4
  store i32 1, ptr %11, align 4, !tbaa !4
  store i32 131096, ptr %14, align 4
  %15 = getelementptr inbounds nuw i8, ptr %11, i64 8
  store ptr %6, ptr %15, align 8, !tbaa !9
  %16 = getelementptr inbounds nuw i8, ptr %11, i64 16
  store ptr %4, ptr %16, align 8, !tbaa !9
  %17 = ptrtoint ptr %3 to i64
  %18 = and i64 %17, 1
  %.not = icmp eq i64 %18, 0
  br i1 %.not, label %19, label %lean_dec.exit10

19:                                               ; preds = %l_Lean_PersistentArray_forInAux___at_Lean_Core_wrapAsyncAsSnapshot___spec__8___lambda__1.exit
  %20 = load i32, ptr %3, align 4, !tbaa !4
  %21 = icmp sgt i32 %20, 1
  br i1 %21, label %22, label %24, !prof !11

22:                                               ; preds = %19
  %23 = add nsw i32 %20, -1
  store i32 %23, ptr %3, align 4, !tbaa !4
  br label %lean_dec.exit10

24:                                               ; preds = %19
  %.not.i = icmp eq i32 %20, 0
  br i1 %.not.i, label %lean_dec.exit10, label %25

25:                                               ; preds = %24
  tail call void @lean_dec_ref_cold(ptr noundef nonnull %3) #7
  br label %lean_dec.exit10

lean_dec.exit10:                                  ; preds = %25, %24, %22, %l_Lean_PersistentArray_forInAux___at_Lean_Core_wrapAsyncAsSnapshot___spec__8___lambda__1.exit
  %26 = ptrtoint ptr %2 to i64
  %27 = and i64 %26, 1
  %.not15 = icmp eq i64 %27, 0
  br i1 %.not15, label %28, label %lean_dec.exit9

28:                                               ; preds = %lean_dec.exit10
  %29 = load i32, ptr %2, align 4, !tbaa !4
  %30 = icmp sgt i32 %29, 1
  br i1 %30, label %31, label %33, !prof !11

31:                                               ; preds = %28
  %32 = add nsw i32 %29, -1
  store i32 %32, ptr %2, align 4, !tbaa !4
  br label %lean_dec.exit9

33:                                               ; preds = %28
  %.not.i11 = icmp eq i32 %29, 0
  br i1 %.not.i11, label %lean_dec.exit9, label %34

34:                                               ; preds = %33
  tail call void @lean_dec_ref_cold(ptr noundef nonnull %2) #7
  br label %lean_dec.exit9

lean_dec.exit9:                                   ; preds = %34, %33, %31, %lean_dec.exit10
  %35 = ptrtoint ptr %1 to i64
  %36 = and i64 %35, 1
  %.not16 = icmp eq i64 %36, 0
  br i1 %.not16, label %37, label %lean_dec.exit

37:                                               ; preds = %lean_dec.exit9
  %38 = load i32, ptr %1, align 4, !tbaa !4
  %39 = icmp sgt i32 %38, 1
  br i1 %39, label %40, label %42, !prof !11

40:                                               ; preds = %37
  %41 = add nsw i32 %38, -1
  store i32 %41, ptr %1, align 4, !tbaa !4
  br label %lean_dec.exit

42:                                               ; preds = %37
  %.not.i13 = icmp eq i32 %38, 0
  br i1 %.not.i13, label %lean_dec.exit, label %43

43:                                               ; preds = %42
  tail call void @lean_dec_ref_cold(ptr noundef nonnull %1) #7
  br label %lean_dec.exit

lean_dec.exit:                                    ; preds = %43, %42, %40, %lean_dec.exit9
  ret ptr %11
}